; Function Attrs: nounwind uwtable
define internal ptr @_heapq__heapreplace_max(ptr readnone captures(none) %0, ptr noundef readonly captures(none) %1, i64 noundef %2) #0 {
  %or.cond = icmp eq i64 %2, 2
  br i1 %or.cond, label %6, label %4

4:                                                ; preds = %3
  %5 = tail call i32 @_PyArg_CheckPositional(ptr noundef nonnull @.str.8, i64 noundef %2, i64 noundef 2, i64 noundef 2) #2
  %.not = icmp eq i32 %5, 0
  br i1 %.not, label %_heapq__heapreplace_max_impl.exit, label %6

6:                                                ; preds = %3, %4
  %7 = load ptr, ptr %1, align 8, !tbaa !3
  %8 = getelementptr i8, ptr %7, i64 8
  %.val = load ptr, ptr %8, align 8, !tbaa !8
  %9 = getelementptr i8, ptr %.val, i64 168
  %.val12 = load i64, ptr %9, align 8, !tbaa !11
  %10 = and i64 %.val12, 33554432
  %.not11 = icmp eq i64 %10, 0
  br i1 %.not11, label %11, label %12

11:                                               ; preds = %6
  tail call void @_PyArg_BadArgument(ptr noundef nonnull @.str.8, ptr noundef nonnull @.str.10, ptr noundef nonnull @.str.11, ptr noundef nonnull %7) #2
  br label %_heapq__heapreplace_max_impl.exit

12:                                               ; preds = %6
  %13 = getelementptr i8, ptr %1, i64 8
  %14 = load ptr, ptr %13, align 8, !tbaa !3
  %15 = getelementptr i8, ptr %7, i64 16
  %.val.i.i = load i64, ptr %15, align 8, !tbaa !21
  %16 = icmp eq i64 %.val.i.i, 0
  br i1 %16, label %17, label %19

17:                                               ; preds = %12
  %18 = load ptr, ptr @PyExc_IndexError, align 8, !tbaa !3
  tail call void @PyErr_SetString(ptr noundef %18, ptr noundef nonnull @.str.12) #2
  br label %_heapq__heapreplace_max_impl.exit

19:                                               ; preds = %12
  %20 = getelementptr inbounds nuw i8, ptr %7, i64 24
  %21 = load ptr, ptr %20, align 8, !tbaa !23
  %22 = load ptr, ptr %21, align 8, !tbaa !3
  %23 = load i32, ptr %14, align 8, !tbaa !22
  %24 = icmp slt i32 %23, 0
  br i1 %24, label %_Py_NewRef.exit.i.i, label %25

25:                                               ; preds = %19
  %26 = add nuw i32 %23, 1
  store i32 %26, ptr %14, align 8, !tbaa !22
  %.val9.pre.i.i = load ptr, ptr %20, align 8, !tbaa !23
  br label %_Py_NewRef.exit.i.i

_Py_NewRef.exit.i.i:                              ; preds = %25, %19
  %.val9.i.i = phi ptr [ %21, %19 ], [ %.val9.pre.i.i, %25 ]
  store ptr %14, ptr %.val9.i.i, align 8, !tbaa !3
  %27 = tail call i32 @siftup_max(ptr noundef nonnull readonly %7, i64 noundef 0) #2, !callees !26
  %.not.i.i = icmp eq i32 %27, 0
  br i1 %.not.i.i, label %_heapq__heapreplace_max_impl.exit, label %28

28:                                               ; preds = %_Py_NewRef.exit.i.i
  %29 = load i32, ptr %22, align 8, !tbaa !22
  %.not.i.i.i = icmp sgt i32 %29, -1
  br i1 %.not.i.i.i, label %30, label %_heapq__heapreplace_max_impl.exit

30:                                               ; preds = %28
  %31 = add nsw i32 %29, -1
  store i32 %31, ptr %22, align 8, !tbaa !22
  %32 = icmp eq i32 %31, 0
  br i1 %32, label %33, label %_heapq__heapreplace_max_impl.exit

33:                                               ; preds = %30
  tail call void @_Py_Dealloc(ptr noundef nonnull %22) #2
  br label %_heapq__heapreplace_max_impl.exit

_heapq__heapreplace_max_impl.exit:                ; preds = %33, %30, %28, %_Py_NewRef.exit.i.i, %17, %4, %11
  %.0 = phi ptr [ null, %11 ], [ null, %4 ], [ null, %17 ], [ %22, %_Py_NewRef.exit.i.i ], [ null, %28 ], [ null, %30 ], [ null, %33 ]
  ret ptr %.0
}